target datalayout = "e-m:e-p270:32:32-p271:32:32-p272:64:64-i64:64-i128:128-f80:128-n8:16:32:64-S128"
target triple = "x86_64-pc-linux-gnu"

%struct._object = type { %union.anon, ptr }
%union.anon = type { i64 }
%struct.PyVarObject = type { %struct._object, i64 }
%struct.arrayobject = type { %struct.PyVarObject, ptr, i64, ptr, ptr, i64 }

@PyExc_OverflowError = external global ptr, align 8
@.str.35 = private unnamed_addr constant [29 x i8] c"i;array item must be integer\00", align 1
@.str.36 = private unnamed_addr constant [36 x i8] c"unsigned short is less than minimum\00", align 1
@.str.37 = private unnamed_addr constant [39 x i8] c"unsigned short is greater than maximum\00", align 1

; Function Attrs: nounwind uwtable
define internal i32 @HH_setitem(ptr noundef %0, i64 noundef %1, ptr noundef %2) #0 {
  %4 = alloca i32, align 4
  %5 = alloca ptr, align 8
  %6 = alloca i64, align 8
  %7 = alloca ptr, align 8
  %8 = alloca i32, align 4
  %9 = alloca i32, align 4
  store ptr %0, ptr %5, align 8, !tbaa !68
  store i64 %1, ptr %6, align 8, !tbaa !21
  store ptr %2, ptr %7, align 8, !tbaa !3
  call void @llvm.lifetime.start.p0(i64 4, ptr %8) #8
  %10 = load ptr, ptr %7, align 8, !tbaa !3
  %11 = call i32 (ptr, ptr, ...) @PyArg_Parse(ptr noundef %10, ptr noundef @.str.35, ptr noundef %8)
  %12 = icmp ne i32 %11, 0
  br i1 %12, label %14, label %13

13:                                               ; preds = %3
  store i32 -1, ptr %4, align 4
  store i32 1, ptr %9, align 4
  br label %38

14:                                               ; preds = %3
  %15 = load i32, ptr %8, align 4, !tbaa !12
  %16 = icmp slt i32 %15, 0
  br i1 %16, label %17, label %19

17:                                               ; preds = %14
  %18 = load ptr, ptr @PyExc_OverflowError, align 8, !tbaa !3
  call void @PyErr_SetString(ptr noundef %18, ptr noundef @.str.36)
  store i32 -1, ptr %4, align 4
  store i32 1, ptr %9, align 4
  br label %38

19:                                               ; preds = %14
  %20 = load i32, ptr %8, align 4, !tbaa !12
  %21 = icmp sgt i32 %20, 65535
  br i1 %21, label %22, label %24

22:                                               ; preds = %19
  %23 = load ptr, ptr @PyExc_OverflowError, align 8, !tbaa !3
  call void @PyErr_SetString(ptr noundef %23, ptr noundef @.str.37)
  store i32 -1, ptr %4, align 4
  store i32 1, ptr %9, align 4
  br label %38

24:                                               ; preds = %19
  br label %25

25:                                               ; preds = %24
  br label %26

26:                                               ; preds = %25
  %27 = load i64, ptr %6, align 8, !tbaa !21
  %28 = icmp sge i64 %27, 0
  br i1 %28, label %29, label %37

29:                                               ; preds = %26
  %30 = load i32, ptr %8, align 4, !tbaa !12
  %31 = trunc i32 %30 to i16
  %32 = load ptr, ptr %5, align 8, !tbaa !68
  %33 = getelementptr inbounds nuw %struct.arrayobject, ptr %32, i32 0, i32 1
  %34 = load ptr, ptr %33, align 8, !tbaa !70
  %35 = load i64, ptr %6, align 8, !tbaa !21
  %36 = getelementptr i16, ptr %34, i64 %35
  store i16 %31, ptr %36, align 2, !tbaa !37
  br label %37

37:                                               ; preds = %29, %26
  store i32 0, ptr %4, align 4
  store i32 1, ptr %9, align 4
  br label %38

38:                                               ; preds = %37, %22, %17, %13
  call void @llvm.lifetime.end.p0(i64 4, ptr %8) #8
  %39 = load i32, ptr %4, align 4
  ret i32 %39
}